target datalayout = "e-m:e-p270:32:32-p271:32:32-p272:64:64-i64:64-i128:128-f80:128-n8:16:32:64-S128"
target triple = "x86_64-pc-linux-gnu"

%struct.stbvox_mesh_maker = type { %struct.stbvox_input_description, i32, i32, i32, i32, i32, i32, i32, i32, i32, i32, i32, i32, i32, i32, [6 x [4 x i32]], [6 x [4 x i32]], i32, i32, i32, i32, [2 x [3 x ptr]], [2 x [3 x ptr]], [2 x [3 x ptr]], [2 x [3 x i32]], [2 x [3 x i32]], [2 x [3 x i32]], i32, [128 x [2 x float]] }
%struct.stbvox_input_description = type { i8, ptr, ptr, ptr, ptr, ptr, ptr, ptr, ptr, ptr, ptr, ptr, ptr, ptr, ptr, ptr, ptr, ptr, ptr, ptr, ptr, ptr, ptr, ptr, ptr, ptr, ptr, ptr, ptr, ptr, ptr, ptr, ptr, ptr, ptr, ptr, ptr, ptr, ptr, ptr, ptr, ptr, ptr }

; Function Attrs: nounwind uwtable
define void @stbvox_bring_up_to_date(ptr noundef %0) #0 {
  %2 = alloca ptr, align 8
  %3 = alloca i32, align 4
  store ptr %0, ptr %2, align 8, !tbaa !20
  %4 = load ptr, ptr %2, align 8, !tbaa !20
  %5 = getelementptr inbounds nuw %struct.stbvox_mesh_maker, ptr %4, i32 0, i32 12
  %6 = load i32, ptr %5, align 4, !tbaa !102
  %7 = icmp ne i32 %6, 0
  br i1 %7, label %8, label %33

8:                                                ; preds = %1
  call void @llvm.lifetime.start.p0(i64 4, ptr %3) #4
  %9 = load ptr, ptr %2, align 8, !tbaa !20
  %10 = getelementptr inbounds nuw %struct.stbvox_mesh_maker, ptr %9, i32 0, i32 27
  store i32 1, ptr %10, align 8, !tbaa !103
  store i32 0, ptr %3, align 4, !tbaa !3
  br label %11

11:                                               ; preds = %27, %8
  %12 = load i32, ptr %3, align 4, !tbaa !3
  %13 = icmp slt i32 %12, 2
  br i1 %13, label %14, label %30

14:                                               ; preds = %11
  %15 = load ptr, ptr %2, align 8, !tbaa !20
  %16 = getelementptr inbounds nuw %struct.stbvox_mesh_maker, ptr %15, i32 0, i32 25
  %17 = load i32, ptr %3, align 4, !tbaa !3
  %18 = sext i32 %17 to i64
  %19 = getelementptr inbounds [2 x [3 x i32]], ptr %16, i64 0, i64 %18
  %20 = getelementptr inbounds [3 x i32], ptr %19, i64 0, i64 0
  store i32 32, ptr %20, align 4, !tbaa !3
  %21 = load ptr, ptr %2, align 8, !tbaa !20
  %22 = getelementptr inbounds nuw %struct.stbvox_mesh_maker, ptr %21, i32 0, i32 26
  %23 = load i32, ptr %3, align 4, !tbaa !3
  %24 = sext i32 %23 to i64
  %25 = getelementptr inbounds [2 x [3 x i32]], ptr %22, i64 0, i64 %24
  %26 = getelementptr inbounds [3 x i32], ptr %25, i64 0, i64 0
  store i32 8, ptr %26, align 4, !tbaa !3
  br label %27

27:                                               ; preds = %14
  %28 = load i32, ptr %3, align 4, !tbaa !3
  %29 = add nsw i32 %28, 1
  store i32 %29, ptr %3, align 4, !tbaa !3
  br label %11, !llvm.loop !104

30:                                               ; preds = %11
  %31 = load ptr, ptr %2, align 8, !tbaa !20
  %32 = getelementptr inbounds nuw %struct.stbvox_mesh_maker, ptr %31, i32 0, i32 12
  store i32 0, ptr %32, align 4, !tbaa !102
  call void @llvm.lifetime.end.p0(i64 4, ptr %3) #4
  br label %33

33:                                               ; preds = %30, %1
  ret void
}

; Function Attrs: nounwind uwtable
define void @stbvox_set_buffer(ptr noundef %0, i32 noundef %1, i32 noundef %2, ptr noundef %3, i64 noundef %4) #0 {
  %6 = alloca ptr, align 8
  %7 = alloca i32, align 4
  %8 = alloca i32, align 4
  %9 = alloca ptr, align 8
  %10 = alloca i64, align 8
  %11 = alloca i32, align 4
  store ptr %0, ptr %6, align 8, !tbaa !20
  store i32 %1, ptr %7, align 4, !tbaa !3
  store i32 %2, ptr %8, align 4, !tbaa !3
  store ptr %3, ptr %9, align 8, !tbaa !116
  store i64 %4, ptr %10, align 8, !tbaa !117
  call void @llvm.lifetime.start.p0(i64 4, ptr %11) #4
  %12 = load ptr, ptr %6, align 8, !tbaa !20
  call void @stbvox_bring_up_to_date(ptr noundef %12)
  %13 = load ptr, ptr %9, align 8, !tbaa !116
  %14 = load ptr, ptr %6, align 8, !tbaa !20
  %15 = getelementptr inbounds nuw %struct.stbvox_mesh_maker, ptr %14, i32 0, i32 23
  %16 = load i32, ptr %7, align 4, !tbaa !3
  %17 = sext i32 %16 to i64
  %18 = getelementptr inbounds [2 x [3 x ptr]], ptr %15, i64 0, i64 %17
  %19 = load i32, ptr %8, align 4, !tbaa !3
  %20 = sext i32 %19 to i64
  %21 = getelementptr inbounds [3 x ptr], ptr %18, i64 0, i64 %20
  store ptr %13, ptr %21, align 8, !tbaa !12
  %22 = load ptr, ptr %9, align 8, !tbaa !116
  %23 = load ptr, ptr %6, align 8, !tbaa !20
  %24 = getelementptr inbounds nuw %struct.stbvox_mesh_maker, ptr %23, i32 0, i32 21
  %25 = load i32, ptr %7, align 4, !tbaa !3
  %26 = sext i32 %25 to i64
  %27 = getelementptr inbounds [2 x [3 x ptr]], ptr %24, i64 0, i64 %26
  %28 = load i32, ptr %8, align 4, !tbaa !3
  %29 = sext i32 %28 to i64
  %30 = getelementptr inbounds [3 x ptr], ptr %27, i64 0, i64 %29
  store ptr %22, ptr %30, align 8, !tbaa !12
  %31 = load i64, ptr %10, align 8, !tbaa !117
  %32 = trunc i64 %31 to i32
  %33 = load ptr, ptr %6, align 8, !tbaa !20
  %34 = getelementptr inbounds nuw %struct.stbvox_mesh_maker, ptr %33, i32 0, i32 24
  %35 = load i32, ptr %7, align 4, !tbaa !3
  %36 = sext i32 %35 to i64
  %37 = getelementptr inbounds [2 x [3 x i32]], ptr %34, i64 0, i64 %36
  %38 = load i32, ptr %8, align 4, !tbaa !3
  %39 = sext i32 %38 to i64
  %40 = getelementptr inbounds [3 x i32], ptr %37, i64 0, i64 %39
  store i32 %32, ptr %40, align 4, !tbaa !3
  %41 = load ptr, ptr %9, align 8, !tbaa !116
  %42 = load i64, ptr %10, align 8, !tbaa !117
  %43 = getelementptr inbounds nuw i8, ptr %41, i64 %42
  %44 = load ptr, ptr %6, align 8, !tbaa !20
  %45 = getelementptr inbounds nuw %struct.stbvox_mesh_maker, ptr %44, i32 0, i32 22
  %46 = load i32, ptr %7, align 4, !tbaa !3
  %47 = sext i32 %46 to i64
  %48 = getelementptr inbounds [2 x [3 x ptr]], ptr %45, i64 0, i64 %47
  %49 = load i32, ptr %8, align 4, !tbaa !3
  %50 = sext i32 %49 to i64
  %51 = getelementptr inbounds [3 x ptr], ptr %48, i64 0, i64 %50
  store ptr %43, ptr %51, align 8, !tbaa !12
  store i32 0, ptr %11, align 4, !tbaa !3
  br label %52

52:                                               ; preds = %68, %5
  %53 = load i32, ptr %11, align 4, !tbaa !3
  %54 = icmp slt i32 %53, 3
  br i1 %54, label %55, label %71

55:                                               ; preds = %52
  %56 = load ptr, ptr %6, align 8, !tbaa !20
  %57 = getelementptr inbounds nuw %struct.stbvox_mesh_maker, ptr %56, i32 0, i32 23
  %58 = load i32, ptr %7, align 4, !tbaa !3
  %59 = sext i32 %58 to i64
  %60 = getelementptr inbounds [2 x [3 x ptr]], ptr %57, i64 0, i64 %59
  %61 = load i32, ptr %11, align 4, !tbaa !3
  %62 = sext i32 %61 to i64
  %63 = getelementptr inbounds [3 x ptr], ptr %60, i64 0, i64 %62
  %64 = load ptr, ptr %63, align 8, !tbaa !12
  %65 = icmp ne ptr %64, null
  br i1 %65, label %66, label %67

66:                                               ; preds = %55
  br label %67

67:                                               ; preds = %66, %55
  br label %68

68:                                               ; preds = %67
  %69 = load i32, ptr %11, align 4, !tbaa !3
  %70 = add nsw i32 %69, 1
  store i32 %70, ptr %11, align 4, !tbaa !3
  br label %52, !llvm.loop !119

71:                                               ; preds = %52
  call void @llvm.lifetime.end.p0(i64 4, ptr %11) #4
  ret void
}