; Function Attrs: mustprogress nofree norecurse nosync nounwind willreturn memory(argmem: readwrite) uwtable
define void @stbvox_set_buffer(ptr noundef captures(none) %0, i32 noundef %1, i32 noundef %2, ptr noundef %3, i64 noundef %4) local_unnamed_addr #11 {
  %6 = getelementptr inbounds nuw i8, ptr %0, i64 388
  %7 = load i32, ptr %6, align 4, !tbaa !86
  %.not.i = icmp eq i32 %7, 0
  br i1 %.not.i, label %stbvox_bring_up_to_date.exit, label %.critedge

.critedge:                                        ; preds = %5
  %8 = getelementptr inbounds nuw i8, ptr %0, i64 824
  store i32 1, ptr %8, align 8, !tbaa !87
  %9 = getelementptr inbounds nuw i8, ptr %0, i64 776
  %10 = getelementptr inbounds nuw i8, ptr %0, i64 800
  store i32 32, ptr %9, align 4, !tbaa !14
  store i32 8, ptr %10, align 4, !tbaa !14
  %11 = getelementptr inbounds nuw i8, ptr %0, i64 788
  store i32 32, ptr %11, align 4, !tbaa !14
  %12 = getelementptr inbounds nuw i8, ptr %0, i64 812
  store i32 8, ptr %12, align 4, !tbaa !14
  store i32 0, ptr %6, align 4, !tbaa !86
  br label %stbvox_bring_up_to_date.exit

stbvox_bring_up_to_date.exit:                     ; preds = %5, %.critedge
  %13 = getelementptr inbounds nuw i8, ptr %0, i64 704
  %14 = sext i32 %1 to i64
  %15 = sext i32 %2 to i64
  %16 = getelementptr inbounds [2 x [3 x ptr]], ptr %13, i64 0, i64 %14, i64 %15
  store ptr %3, ptr %16, align 8, !tbaa !10
  %17 = getelementptr inbounds nuw i8, ptr %0, i64 608
  %18 = getelementptr inbounds [2 x [3 x ptr]], ptr %17, i64 0, i64 %14, i64 %15
  store ptr %3, ptr %18, align 8, !tbaa !10
  %19 = trunc i64 %4 to i32
  %20 = getelementptr inbounds nuw i8, ptr %0, i64 752
  %21 = getelementptr inbounds [2 x [3 x i32]], ptr %20, i64 0, i64 %14, i64 %15
  store i32 %19, ptr %21, align 4, !tbaa !14
  %22 = getelementptr inbounds nuw i8, ptr %3, i64 %4
  %23 = getelementptr inbounds nuw i8, ptr %0, i64 656
  %24 = getelementptr inbounds [2 x [3 x ptr]], ptr %23, i64 0, i64 %14, i64 %15
  store ptr %22, ptr %24, align 8, !tbaa !10
  ret void
}